; Function Attrs: mustprogress nofree norecurse nosync nounwind willreturn memory(argmem: read) uwtable
define noundef zeroext i16 @_Z19libraw_sget2_staticsPh(i16 noundef signext %0, ptr noundef readonly captures(none) %1) local_unnamed_addr #0 {
  %3 = icmp eq i16 %0, 18761
  br i1 %3, label %4, label %6

4:                                                ; preds = %2
  %5 = load i16, ptr %1, align 1
  br label %14

6:                                                ; preds = %2
  %7 = load i8, ptr %1, align 1, !tbaa !71
  %8 = zext i8 %7 to i16
  %9 = shl nuw i16 %8, 8
  %10 = getelementptr inbounds nuw i8, ptr %1, i64 1
  %11 = load i8, ptr %10, align 1, !tbaa !71
  %12 = zext i8 %11 to i16
  %13 = or disjoint i16 %9, %12
  br label %14

14:                                               ; preds = %6, %4
  %.0 = phi i16 [ %5, %4 ], [ %13, %6 ]
  ret i16 %.0
}